target datalayout = "e-m:e-p270:32:32-p271:32:32-p272:64:64-i64:64-i128:128-f80:128-n8:16:32:64-S128"
target triple = "x86_64-pc-linux-gnu"

%struct.raxStack = type { ptr, i64, i64, [32 x ptr], i32 }
%struct.raxIterator = type { i32, ptr, ptr, ptr, i64, i64, [128 x i8], ptr, %struct.raxStack, ptr }

; Function Attrs: inlinehint nounwind uwtable
define internal void @raxStackFree(ptr noundef %0) #8 {
  %2 = alloca ptr, align 8
  store ptr %0, ptr %2, align 8, !tbaa !29
  %3 = load ptr, ptr %2, align 8, !tbaa !29
  %4 = getelementptr inbounds nuw %struct.raxStack, ptr %3, i32 0, i32 0
  %5 = load ptr, ptr %4, align 8, !tbaa !39
  %6 = load ptr, ptr %2, align 8, !tbaa !29
  %7 = getelementptr inbounds nuw %struct.raxStack, ptr %6, i32 0, i32 3
  %8 = getelementptr inbounds [32 x ptr], ptr %7, i64 0, i64 0
  %9 = icmp ne ptr %5, %8
  br i1 %9, label %10, label %14

10:                                               ; preds = %1
  %11 = load ptr, ptr %2, align 8, !tbaa !29
  %12 = getelementptr inbounds nuw %struct.raxStack, ptr %11, i32 0, i32 0
  %13 = load ptr, ptr %12, align 8, !tbaa !39
  call void @zfree(ptr noundef %13)
  br label %14

14:                                               ; preds = %10, %1
  ret void
}

; Function Attrs: nounwind uwtable
define dso_local void @raxStop(ptr noundef %0) #0 {
  %2 = alloca ptr, align 8
  store ptr %0, ptr %2, align 8, !tbaa !44
  %3 = load ptr, ptr %2, align 8, !tbaa !44
  %4 = getelementptr inbounds nuw %struct.raxIterator, ptr %3, i32 0, i32 2
  %5 = load ptr, ptr %4, align 8, !tbaa !50
  %6 = load ptr, ptr %2, align 8, !tbaa !44
  %7 = getelementptr inbounds nuw %struct.raxIterator, ptr %6, i32 0, i32 6
  %8 = getelementptr inbounds [128 x i8], ptr %7, i64 0, i64 0
  %9 = icmp ne ptr %5, %8
  br i1 %9, label %10, label %14

10:                                               ; preds = %1
  %11 = load ptr, ptr %2, align 8, !tbaa !44
  %12 = getelementptr inbounds nuw %struct.raxIterator, ptr %11, i32 0, i32 2
  %13 = load ptr, ptr %12, align 8, !tbaa !50
  call void @zfree(ptr noundef %13)
  br label %14

14:                                               ; preds = %10, %1
  %15 = load ptr, ptr %2, align 8, !tbaa !44
  %16 = getelementptr inbounds nuw %struct.raxIterator, ptr %15, i32 0, i32 8
  call void @raxStackFree(ptr noundef %16)
  ret void
}