; Function Attrs: nounwind uwtable
define dso_local void @raxStop(ptr noundef readonly captures(address) %0) local_unnamed_addr #1 {
  %2 = getelementptr inbounds nuw i8, ptr %0, i64 16
  %3 = load ptr, ptr %2, align 8, !tbaa !38
  %4 = getelementptr inbounds nuw i8, ptr %0, i64 48
  %.not = icmp eq ptr %3, %4
  br i1 %.not, label %6, label %5

5:                                                ; preds = %1
  tail call void @zfree(ptr noundef %3) #26
  br label %6

6:                                                ; preds = %5, %1
  %7 = getelementptr inbounds nuw i8, ptr %0, i64 184
  %8 = load ptr, ptr %7, align 8, !tbaa !27
  %9 = getelementptr inbounds nuw i8, ptr %0, i64 208
  %.not.i = icmp eq ptr %8, %9
  br i1 %.not.i, label %raxStackFree.exit, label %10

10:                                               ; preds = %6
  tail call void @zfree(ptr noundef %8) #26
  br label %raxStackFree.exit

raxStackFree.exit:                                ; preds = %6, %10
  ret void
}